(lp0
S'poi'
p1
aS'salary'
p2
aS'bonus'
p3
aS'total_payments'
p4
aS'exercised_stock_options'
p5
aS'restricted_stock'
p6
aS'total_stock_value'
p7
aS'from_poi_to_this_person'
p8
aS'from_this_person_to_poi'
p9
aS'to_messages'
p10
aS'from_messages'
p11
aS'ratio_from_poi'
p12
aS'ratio_to_poi'
p13
a.